Certificate:
    Data:
        Version: 3 (0x2)
        Serial Number: 4097 (0x1001)
    Signature Algorithm: sha256WithRSAEncryption
        Issuer: C=DE, ST=BY, L=Munich, O=AndiDog, OU=AbsoluteUnit, CN=ice-ca
        Validity
            Not Before: Aug  9 08:01:21 2019 GMT
            Not After : Aug  6 08:01:21 2029 GMT
        Subject: C=DE, ST=BY, O=AndiDog, OU=AbsoluteUnit, CN=the-client
        Subject Public Key Info:
            Public Key Algorithm: rsaEncryption
                Public-Key: (2048 bit)
                Modulus:
                    00:c4:80:ef:8e:6a:94:e0:42:c2:54:52:65:48:88:
                    e4:2a:38:b8:3c:23:9b:9e:a1:a5:ac:3e:04:5c:03:
                    c2:d0:50:ba:c2:e8:7f:8f:cc:81:1e:76:2a:15:66:
                    55:c8:8a:9f:89:d7:3b:70:57:a7:cc:10:9a:7e:de:
                    c8:cb:bc:5e:38:fb:e0:c2:c4:9e:23:7a:be:43:55:
                    5a:05:d7:2f:1e:43:9d:0c:4e:79:8e:0a:0a:15:d5:
                    f8:f6:58:e2:2a:18:b1:c7:3e:c7:52:e3:06:ae:69:
                    82:d6:fc:c0:7c:6c:5e:31:65:28:ba:54:c9:22:8c:
                    61:29:f5:a0:71:ae:e8:e2:6b:b7:b7:4f:10:e4:bb:
                    7f:42:b3:60:04:6d:d0:eb:a0:02:ba:94:cd:35:f1:
                    0b:74:f8:5b:2e:c0:5e:e4:71:15:0d:ac:67:0d:7d:
                    7a:a3:86:72:31:91:38:46:0c:9a:ce:1a:42:f1:92:
                    85:ca:d3:05:96:ff:d2:11:d2:77:84:7d:c5:5f:34:
                    d4:d7:ea:b6:1f:c9:0a:e1:e3:57:ab:c3:bd:17:2d:
                    98:c5:d2:c4:7b:d0:dc:65:11:9e:13:e9:21:46:05:
                    f5:f3:26:58:a9:0f:23:28:60:75:c4:ac:dc:6b:12:
                    7e:ff:67:96:ca:63:df:6f:26:48:ff:ff:97:63:9f:
                    9e:fd
                Exponent: 65537 (0x10001)
        X509v3 extensions:
            X509v3 Basic Constraints: 
                CA:FALSE
            X509v3 Subject Key Identifier: 
                88:E1:05:89:CF:C3:4F:39:95:CE:2F:54:34:87:2F:FA:AE:73:0D:A7
            X509v3 Authority Key Identifier: 
                keyid:5A:CD:D8:52:DE:50:AA:F8:51:CA:5E:9F:26:F8:43:63:43:A3:02:68
                DirName:/C=DE/ST=BY/L=Munich/O=AndiDog/OU=AbsoluteUnit/CN=ice-ca
                serial:D5:21:2B:35:BA:8B:B8:60

    Signature Algorithm: sha256WithRSAEncryption
         89:c2:38:b6:45:7c:08:5a:61:38:96:07:a8:53:5e:de:26:1a:
         c1:af:1c:a3:8f:79:58:98:c9:44:73:04:fe:39:a0:13:83:2c:
         2b:b9:38:92:31:ac:7e:9c:4d:4c:ca:12:42:a3:9f:7d:cc:ee:
         e5:be:f4:09:0c:a7:7c:2f:e2:cd:c2:59:2f:8f:ad:75:3f:7b:
         b0:47:c5:93:c0:3c:59:05:ab:42:51:68:11:da:d6:13:dd:05:
         00:7e:ad:ef:c6:c7:54:30:e6:e1:ef:2c:c4:d9:40:80:da:a4:
         05:f0:cd:60:3b:12:f1:95:bc:d7:b3:d5:8d:0d:95:cc:f8:04:
         10:0d:d5:1a:d6:40:fd:b2:5e:14:d5:b8:41:3e:fc:04:ed:dd:
         7c:0d:26:39:7d:cc:ae:93:4e:7d:85:46:4f:a7:03:7f:bc:5b:
         e8:70:e7:a4:59:57:aa:2f:31:38:3c:61:ff:79:e5:ad:2b:df:
         16:01:4f:d3:79:94:8b:33:b0:8e:89:f3:2f:c6:de:28:89:cf:
         cb:70:ce:59:47:6e:bc:80:fc:d0:ad:e0:5d:36:1a:02:7e:56:
         41:f7:5c:d9:7b:ba:0c:05:7d:6e:81:d4:a0:c4:3f:0c:05:7e:
         74:f8:5d:ff:ce:af:c3:70:5f:8e:85:e6:fd:60:be:57:40:46:
         ad:fc:30:ec
-----BEGIN CERTIFICATE-----
MIIEATCCAumgAwIBAgICEAEwDQYJKoZIhvcNAQELBQAwZTELMAkGA1UEBhMCREUx
CzAJBgNVBAgMAkJZMQ8wDQYDVQQHDAZNdW5pY2gxEDAOBgNVBAoMB0FuZGlEb2cx
FTATBgNVBAsMDEFic29sdXRlVW5pdDEPMA0GA1UEAwwGaWNlLWNhMB4XDTE5MDgw
OTA4MDEyMVoXDTI5MDgwNjA4MDEyMVowWDELMAkGA1UEBhMCREUxCzAJBgNVBAgM
AkJZMRAwDgYDVQQKDAdBbmRpRG9nMRUwEwYDVQQLDAxBYnNvbHV0ZVVuaXQxEzAR
BgNVBAMMCnRoZS1jbGllbnQwggEiMA0GCSqGSIb3DQEBAQUAA4IBDwAwggEKAoIB
AQDEgO+OapTgQsJUUmVIiOQqOLg8I5ueoaWsPgRcA8LQULrC6H+PzIEedioVZlXI
ip+J1ztwV6fMEJp+3sjLvF44++DCxJ4jer5DVVoF1y8eQ50MTnmOCgoV1fj2WOIq
GLHHPsdS4wauaYLW/MB8bF4xZSi6VMkijGEp9aBxrujia7e3TxDku39Cs2AEbdDr
oAK6lM018Qt0+FsuwF7kcRUNrGcNfXqjhnIxkThGDJrOGkLxkoXK0wWW/9IR0neE
fcVfNNTX6rYfyQrh41erw70XLZjF0sR70NxlEZ4T6SFGBfXzJlipDyMoYHXErNxr
En7/Z5bKY99vJkj//5djn579AgMBAAGjgccwgcQwCQYDVR0TBAIwADAdBgNVHQ4E
FgQUiOEFic/DTzmVzi9UNIcv+q5zDacwgZcGA1UdIwSBjzCBjIAUWs3YUt5QqvhR
yl6fJvhDY0OjAmihaaRnMGUxCzAJBgNVBAYTAkRFMQswCQYDVQQIDAJCWTEPMA0G
A1UEBwwGTXVuaWNoMRAwDgYDVQQKDAdBbmRpRG9nMRUwEwYDVQQLDAxBYnNvbHV0
ZVVuaXQxDzANBgNVBAMMBmljZS1jYYIJANUhKzW6i7hgMA0GCSqGSIb3DQEBCwUA
A4IBAQCJwji2RXwIWmE4lgeoU17eJhrBrxyjj3lYmMlEcwT+OaATgywruTiSMax+
nE1MyhJCo599zO7lvvQJDKd8L+LNwlkvj611P3uwR8WTwDxZBatCUWgR2tYT3QUA
fq3vxsdUMObh7yzE2UCA2qQF8M1gOxLxlbzXs9WNDZXM+AQQDdUa1kD9sl4U1bhB
PvwE7d18DSY5fcyuk059hUZPpwN/vFvocOekWVeqLzE4PGH/eeWtK98WAU/TeZSL
M7COifMvxt4oic/LcM5ZR268gPzQreBdNhoCflZB91zZe7oMBX1ugdSgxD8MBX50
+F3/zq/DcF+Oheb9YL5XQEat/DDs
-----END CERTIFICATE-----
