Certificate:
    Data:
        Version: 3 (0x2)
        Serial Number: 4096 (0x1000)
    Signature Algorithm: sha256WithRSAEncryption
        Issuer: C=DE, ST=BY, L=Munich, O=AndiDog, OU=AbsoluteUnit, CN=ice-ca
        Validity
            Not Before: Aug  9 08:01:16 2019 GMT
            Not After : Aug  6 08:01:16 2029 GMT
        Subject: C=DE, ST=BY, O=AndiDog, OU=AbsoluteUnit, CN=the-server
        Subject Public Key Info:
            Public Key Algorithm: rsaEncryption
                Public-Key: (2048 bit)
                Modulus:
                    00:a0:c0:22:78:32:5c:eb:50:5f:74:8e:5a:98:63:
                    4f:b3:c4:80:ba:01:01:c4:18:8f:25:b2:4e:65:59:
                    2e:b4:bb:f6:f6:f0:ad:35:1d:67:67:12:31:0e:3e:
                    b0:9d:b1:99:a1:05:8a:82:f7:0b:a7:68:43:e9:dc:
                    2d:ab:e9:1c:60:18:51:1a:b2:f0:f4:a6:84:47:81:
                    66:c9:b1:9f:55:2d:90:84:21:3f:70:7c:43:2d:e9:
                    85:1e:aa:e5:dd:4f:00:6a:30:03:fb:4f:bf:2d:5e:
                    ae:ea:95:d4:e0:a6:7b:58:03:aa:35:01:a6:4e:49:
                    15:52:cb:16:18:2c:32:46:bd:19:c5:69:1e:5e:39:
                    f4:01:71:3b:82:79:04:0c:b7:9b:30:5e:1a:28:54:
                    41:a5:41:91:bb:30:b0:26:fa:a5:42:59:23:ef:a9:
                    80:3f:02:4a:2f:3c:e0:1a:fc:df:89:9f:d8:41:5a:
                    8e:2a:de:71:ca:47:67:b4:05:31:30:51:9c:1e:06:
                    14:29:9d:59:4f:6f:60:ea:8d:a9:cc:ee:77:7c:3b:
                    6d:06:eb:bb:ef:10:c8:a9:06:66:67:f9:22:9b:c4:
                    45:37:e1:df:a0:8d:38:7e:0f:e9:a2:c3:29:18:6b:
                    de:d6:4b:25:29:06:c2:67:95:f9:61:60:dc:91:ff:
                    c6:4f
                Exponent: 65537 (0x10001)
        X509v3 extensions:
            X509v3 Basic Constraints: 
                CA:FALSE
            X509v3 Subject Key Identifier: 
                B9:D5:45:72:8E:6B:AC:F6:4B:A1:59:32:2D:85:33:7C:C1:38:A5:05
            X509v3 Authority Key Identifier: 
                keyid:5A:CD:D8:52:DE:50:AA:F8:51:CA:5E:9F:26:F8:43:63:43:A3:02:68
                DirName:/C=DE/ST=BY/L=Munich/O=AndiDog/OU=AbsoluteUnit/CN=ice-ca
                serial:D5:21:2B:35:BA:8B:B8:60

    Signature Algorithm: sha256WithRSAEncryption
         c5:7d:ca:ab:93:67:d7:b2:6f:c5:18:03:eb:7b:43:1e:14:01:
         7b:ed:f4:f4:8b:9d:4e:f5:16:b7:dd:75:40:fb:61:82:2b:1e:
         18:df:6a:5a:7a:e4:73:7c:c7:69:76:76:ce:24:e3:64:d1:4c:
         4f:18:f8:bb:56:9d:75:73:81:86:25:8a:6d:00:83:8f:32:ea:
         02:0b:a5:ed:41:af:5b:dc:f1:ad:8a:45:43:2d:e4:b2:87:bf:
         d4:d4:5b:31:03:2b:6f:20:07:42:d0:20:cf:f8:77:84:95:12:
         74:b6:39:85:a9:8f:98:60:15:13:00:94:95:65:3b:f7:4a:55:
         85:b7:20:68:f7:ea:11:14:41:4a:23:be:fd:ff:44:ff:be:49:
         dd:db:86:e6:85:e8:48:34:ab:ba:77:e3:e7:1a:19:09:53:75:
         49:f9:ef:6f:ac:d8:b4:03:15:71:ff:05:29:df:f7:6b:69:cb:
         7d:27:16:37:6b:89:cc:a1:03:54:c6:fc:50:83:da:64:35:75:
         3e:26:06:f1:5c:26:1d:67:ca:56:44:5b:d5:3d:6b:69:82:d7:
         0a:0d:8a:78:f7:c7:d5:a6:7a:3e:2e:0d:a1:b7:13:da:1c:b3:
         b9:bb:0a:67:67:db:4d:79:c8:f6:ba:ab:f0:44:2b:50:03:30:
         69:61:5b:73
-----BEGIN CERTIFICATE-----
MIIEATCCAumgAwIBAgICEAAwDQYJKoZIhvcNAQELBQAwZTELMAkGA1UEBhMCREUx
CzAJBgNVBAgMAkJZMQ8wDQYDVQQHDAZNdW5pY2gxEDAOBgNVBAoMB0FuZGlEb2cx
FTATBgNVBAsMDEFic29sdXRlVW5pdDEPMA0GA1UEAwwGaWNlLWNhMB4XDTE5MDgw
OTA4MDExNloXDTI5MDgwNjA4MDExNlowWDELMAkGA1UEBhMCREUxCzAJBgNVBAgM
AkJZMRAwDgYDVQQKDAdBbmRpRG9nMRUwEwYDVQQLDAxBYnNvbHV0ZVVuaXQxEzAR
BgNVBAMMCnRoZS1zZXJ2ZXIwggEiMA0GCSqGSIb3DQEBAQUAA4IBDwAwggEKAoIB
AQCgwCJ4MlzrUF90jlqYY0+zxIC6AQHEGI8lsk5lWS60u/b28K01HWdnEjEOPrCd
sZmhBYqC9wunaEPp3C2r6RxgGFEasvD0poRHgWbJsZ9VLZCEIT9wfEMt6YUequXd
TwBqMAP7T78tXq7qldTgpntYA6o1AaZOSRVSyxYYLDJGvRnFaR5eOfQBcTuCeQQM
t5swXhooVEGlQZG7MLAm+qVCWSPvqYA/AkovPOAa/N+Jn9hBWo4q3nHKR2e0BTEw
UZweBhQpnVlPb2DqjanM7nd8O20G67vvEMipBmZn+SKbxEU34d+gjTh+D+miwykY
a97WSyUpBsJnlflhYNyR/8ZPAgMBAAGjgccwgcQwCQYDVR0TBAIwADAdBgNVHQ4E
FgQUudVFco5rrPZLoVkyLYUzfME4pQUwgZcGA1UdIwSBjzCBjIAUWs3YUt5QqvhR
yl6fJvhDY0OjAmihaaRnMGUxCzAJBgNVBAYTAkRFMQswCQYDVQQIDAJCWTEPMA0G
A1UEBwwGTXVuaWNoMRAwDgYDVQQKDAdBbmRpRG9nMRUwEwYDVQQLDAxBYnNvbHV0
ZVVuaXQxDzANBgNVBAMMBmljZS1jYYIJANUhKzW6i7hgMA0GCSqGSIb3DQEBCwUA
A4IBAQDFfcqrk2fXsm/FGAPre0MeFAF77fT0i51O9Ra33XVA+2GCKx4Y32paeuRz
fMdpdnbOJONk0UxPGPi7Vp11c4GGJYptAIOPMuoCC6XtQa9b3PGtikVDLeSyh7/U
1FsxAytvIAdC0CDP+HeElRJ0tjmFqY+YYBUTAJSVZTv3SlWFtyBo9+oRFEFKI779
/0T/vknd24bmhehINKu6d+PnGhkJU3VJ+e9vrNi0AxVx/wUp3/dract9JxY3a4nM
oQNUxvxQg9pkNXU+JgbxXCYdZ8pWRFvVPWtpgtcKDYp498fVpno+Lg2htxPaHLO5
uwpnZ9tNecj2uqvwRCtQAzBpYVtz
-----END CERTIFICATE-----
